; Function Attrs: nounwind uwtable
define internal void @kinBandFree(ptr noundef readonly captures(none) %0) #0 {
  %2 = getelementptr inbounds nuw i8, ptr %0, i64 496
  %3 = load ptr, ptr %2, align 8, !tbaa !39
  %4 = getelementptr inbounds nuw i8, ptr %3, i64 72
  %5 = load ptr, ptr %4, align 8, !tbaa !36
  tail call void @DestroyMat(ptr noundef %5) #5
  %6 = getelementptr inbounds nuw i8, ptr %3, i64 88
  %7 = load ptr, ptr %6, align 8, !tbaa !37
  tail call void @DestroyArray(ptr noundef %7) #5
  tail call void @free(ptr noundef %3) #5
  ret void
}